target datalayout = "e-m:e-p270:32:32-p271:32:32-p272:64:64-i64:64-i128:128-f80:128-n8:16:32:64-S128"
target triple = "x86_64-pc-linux-gnu"

%struct.AVFormatContext = type { ptr, ptr, ptr, ptr, ptr, i32, i32, ptr, i32, ptr, i32, ptr, ptr, i64, i64, i64, i32, i32, i32, i64, i64, ptr, i32, i32, ptr, i32, i32, i32, i32, ptr, i64, i32, i32, %struct.AVIOInterruptCB, i32, i32, i32, i32, i64, i32, i32, i32, i32, i32, i32, i32, i32, i32, i32, i32, i32, i64, i32, i32, i32, i32, i32, ptr, ptr, ptr, ptr, i32, ptr, ptr, ptr, ptr, i32, ptr, ptr, i64, ptr, ptr, ptr, i64 }
%struct.AVIOInterruptCB = type { ptr, ptr }
%struct.AVPacket = type { ptr, i64, i64, ptr, i32, i32, i32, ptr, i32, i64, i64, ptr, ptr, %struct.AVRational }
%struct.AVRational = type { i32, i32 }
%struct.VqfContext = type { i32, i8, i32 }

; Function Attrs: alwaysinline nounwind uwtable
define internal i64 @avio_tell(ptr noundef %0) #7 {
  %2 = alloca ptr, align 8
  store ptr %0, ptr %2, align 8, !tbaa !84
  %3 = load ptr, ptr %2, align 8, !tbaa !84
  %4 = call i64 @avio_seek(ptr noundef %3, i64 noundef 0, i32 noundef 1)
  ret i64 %4
}

; Function Attrs: nounwind uwtable
define internal i32 @vqf_read_packet(ptr noundef %0, ptr noundef %1) #0 {
  %3 = alloca i32, align 4
  %4 = alloca ptr, align 8
  %5 = alloca ptr, align 8
  %6 = alloca ptr, align 8
  %7 = alloca i32, align 4
  %8 = alloca i32, align 4
  %9 = alloca i32, align 4
  store ptr %0, ptr %4, align 8, !tbaa !14
  store ptr %1, ptr %5, align 8, !tbaa !57
  call void @llvm.lifetime.start.p0(i64 8, ptr %6) #10
  %10 = load ptr, ptr %4, align 8, !tbaa !14
  %11 = getelementptr inbounds nuw %struct.AVFormatContext, ptr %10, i32 0, i32 3
  %12 = load ptr, ptr %11, align 8, !tbaa !16
  store ptr %12, ptr %6, align 8, !tbaa !31
  call void @llvm.lifetime.start.p0(i64 4, ptr %7) #10
  call void @llvm.lifetime.start.p0(i64 4, ptr %8) #10
  %13 = load ptr, ptr %6, align 8, !tbaa !31
  %14 = getelementptr inbounds nuw %struct.VqfContext, ptr %13, i32 0, i32 0
  %15 = load i32, ptr %14, align 4, !tbaa !54
  %16 = load ptr, ptr %6, align 8, !tbaa !31
  %17 = getelementptr inbounds nuw %struct.VqfContext, ptr %16, i32 0, i32 2
  %18 = load i32, ptr %17, align 4, !tbaa !59
  %19 = sub nsw i32 %15, %18
  %20 = add nsw i32 %19, 7
  %21 = ashr i32 %20, 3
  store i32 %21, ptr %8, align 4, !tbaa !35
  %22 = load ptr, ptr %5, align 8, !tbaa !57
  %23 = load i32, ptr %8, align 4, !tbaa !35
  %24 = add nsw i32 %23, 2
  %25 = call i32 @av_new_packet(ptr noundef %22, i32 noundef %24)
  store i32 %25, ptr %7, align 4, !tbaa !35
  %26 = icmp slt i32 %25, 0
  br i1 %26, label %27, label %29

27:                                               ; preds = %2
  %28 = load i32, ptr %7, align 4, !tbaa !35
  store i32 %28, ptr %3, align 4
  store i32 1, ptr %9, align 4
  br label %92

29:                                               ; preds = %2
  %30 = load ptr, ptr %4, align 8, !tbaa !14
  %31 = getelementptr inbounds nuw %struct.AVFormatContext, ptr %30, i32 0, i32 4
  %32 = load ptr, ptr %31, align 8, !tbaa !36
  %33 = call i64 @avio_tell(ptr noundef %32)
  %34 = load ptr, ptr %5, align 8, !tbaa !57
  %35 = getelementptr inbounds nuw %struct.AVPacket, ptr %34, i32 0, i32 10
  store i64 %33, ptr %35, align 8, !tbaa !60
  %36 = load ptr, ptr %5, align 8, !tbaa !57
  %37 = getelementptr inbounds nuw %struct.AVPacket, ptr %36, i32 0, i32 5
  store i32 0, ptr %37, align 4, !tbaa !61
  %38 = load ptr, ptr %5, align 8, !tbaa !57
  %39 = getelementptr inbounds nuw %struct.AVPacket, ptr %38, i32 0, i32 9
  store i64 1, ptr %39, align 8, !tbaa !62
  %40 = load ptr, ptr %6, align 8, !tbaa !31
  %41 = getelementptr inbounds nuw %struct.VqfContext, ptr %40, i32 0, i32 2
  %42 = load i32, ptr %41, align 4, !tbaa !59
  %43 = sub nsw i32 8, %42
  %44 = trunc i32 %43 to i8
  %45 = load ptr, ptr %5, align 8, !tbaa !57
  %46 = getelementptr inbounds nuw %struct.AVPacket, ptr %45, i32 0, i32 3
  %47 = load ptr, ptr %46, align 8, !tbaa !63
  %48 = getelementptr inbounds i8, ptr %47, i64 0
  store i8 %44, ptr %48, align 1, !tbaa !13
  %49 = load ptr, ptr %6, align 8, !tbaa !31
  %50 = getelementptr inbounds nuw %struct.VqfContext, ptr %49, i32 0, i32 1
  %51 = load i8, ptr %50, align 4, !tbaa !64
  %52 = load ptr, ptr %5, align 8, !tbaa !57
  %53 = getelementptr inbounds nuw %struct.AVPacket, ptr %52, i32 0, i32 3
  %54 = load ptr, ptr %53, align 8, !tbaa !63
  %55 = getelementptr inbounds i8, ptr %54, i64 1
  store i8 %51, ptr %55, align 1, !tbaa !13
  %56 = load ptr, ptr %4, align 8, !tbaa !14
  %57 = getelementptr inbounds nuw %struct.AVFormatContext, ptr %56, i32 0, i32 4
  %58 = load ptr, ptr %57, align 8, !tbaa !36
  %59 = load ptr, ptr %5, align 8, !tbaa !57
  %60 = getelementptr inbounds nuw %struct.AVPacket, ptr %59, i32 0, i32 3
  %61 = load ptr, ptr %60, align 8, !tbaa !63
  %62 = getelementptr inbounds i8, ptr %61, i64 2
  %63 = load i32, ptr %8, align 4, !tbaa !35
  %64 = call i32 @ffio_read_size(ptr noundef %58, ptr noundef %62, i32 noundef %63)
  store i32 %64, ptr %7, align 4, !tbaa !35
  %65 = load i32, ptr %7, align 4, !tbaa !35
  %66 = icmp slt i32 %65, 0
  br i1 %66, label %67, label %69

67:                                               ; preds = %29
  %68 = load i32, ptr %7, align 4, !tbaa !35
  store i32 %68, ptr %3, align 4
  store i32 1, ptr %9, align 4
  br label %92

69:                                               ; preds = %29
  %70 = load ptr, ptr %5, align 8, !tbaa !57
  %71 = getelementptr inbounds nuw %struct.AVPacket, ptr %70, i32 0, i32 3
  %72 = load ptr, ptr %71, align 8, !tbaa !63
  %73 = load i32, ptr %8, align 4, !tbaa !35
  %74 = add nsw i32 %73, 1
  %75 = sext i32 %74 to i64
  %76 = getelementptr inbounds i8, ptr %72, i64 %75
  %77 = load i8, ptr %76, align 1, !tbaa !13
  %78 = load ptr, ptr %6, align 8, !tbaa !31
  %79 = getelementptr inbounds nuw %struct.VqfContext, ptr %78, i32 0, i32 1
  store i8 %77, ptr %79, align 4, !tbaa !64
  %80 = load i32, ptr %8, align 4, !tbaa !35
  %81 = shl i32 %80, 3
  %82 = load ptr, ptr %6, align 8, !tbaa !31
  %83 = getelementptr inbounds nuw %struct.VqfContext, ptr %82, i32 0, i32 0
  %84 = load i32, ptr %83, align 4, !tbaa !54
  %85 = sub nsw i32 %81, %84
  %86 = load ptr, ptr %6, align 8, !tbaa !31
  %87 = getelementptr inbounds nuw %struct.VqfContext, ptr %86, i32 0, i32 2
  %88 = load i32, ptr %87, align 4, !tbaa !59
  %89 = add nsw i32 %85, %88
  %90 = load ptr, ptr %6, align 8, !tbaa !31
  %91 = getelementptr inbounds nuw %struct.VqfContext, ptr %90, i32 0, i32 2
  store i32 %89, ptr %91, align 4, !tbaa !59
  store i32 0, ptr %3, align 4
  store i32 1, ptr %9, align 4
  br label %92

92:                                               ; preds = %69, %67, %27
  call void @llvm.lifetime.end.p0(i64 4, ptr %8) #10
  call void @llvm.lifetime.end.p0(i64 4, ptr %7) #10
  call void @llvm.lifetime.end.p0(i64 8, ptr %6) #10
  %93 = load i32, ptr %3, align 4
  ret i32 %93
}