; Function Attrs: nounwind uwtable
define internal range(i32 -2147483648, 1) i32 @vqf_read_packet(ptr noundef readonly captures(none) %0, ptr noundef %1) #1 {
  %3 = getelementptr inbounds nuw i8, ptr %0, i64 24
  %4 = load ptr, ptr %3, align 8, !tbaa !12
  %5 = load i32, ptr %4, align 4, !tbaa !45
  %6 = getelementptr inbounds nuw i8, ptr %4, i64 8
  %7 = load i32, ptr %6, align 4, !tbaa !48
  %8 = sub nsw i32 %5, %7
  %9 = add nsw i32 %8, 7
  %10 = ashr i32 %9, 3
  %11 = add nsw i32 %10, 2
  %12 = tail call i32 @av_new_packet(ptr noundef %1, i32 noundef %11) #8
  %13 = icmp slt i32 %12, 0
  br i1 %13, label %46, label %14

14:                                               ; preds = %2
  %15 = getelementptr inbounds nuw i8, ptr %0, i64 32
  %16 = load ptr, ptr %15, align 8, !tbaa !27
  %17 = tail call i64 @avio_seek(ptr noundef %16, i64 noundef 0, i32 noundef 1) #8
  %18 = getelementptr inbounds nuw i8, ptr %1, i64 72
  store i64 %17, ptr %18, align 8, !tbaa !49
  %19 = getelementptr inbounds nuw i8, ptr %1, i64 36
  store i32 0, ptr %19, align 4, !tbaa !50
  %20 = getelementptr inbounds nuw i8, ptr %1, i64 64
  store i64 1, ptr %20, align 8, !tbaa !51
  %21 = load i32, ptr %6, align 4, !tbaa !48
  %22 = trunc i32 %21 to i8
  %23 = sub i8 8, %22
  %24 = getelementptr inbounds nuw i8, ptr %1, i64 24
  %25 = load ptr, ptr %24, align 8, !tbaa !52
  store i8 %23, ptr %25, align 1, !tbaa !11
  %26 = getelementptr inbounds nuw i8, ptr %4, i64 4
  %27 = load i8, ptr %26, align 4, !tbaa !53
  %28 = load ptr, ptr %24, align 8, !tbaa !52
  %29 = getelementptr inbounds nuw i8, ptr %28, i64 1
  store i8 %27, ptr %29, align 1, !tbaa !11
  %30 = load ptr, ptr %15, align 8, !tbaa !27
  %31 = load ptr, ptr %24, align 8, !tbaa !52
  %32 = getelementptr inbounds nuw i8, ptr %31, i64 2
  %33 = tail call i32 @ffio_read_size(ptr noundef %30, ptr noundef nonnull %32, i32 noundef %10) #8
  %34 = icmp slt i32 %33, 0
  br i1 %34, label %46, label %35

35:                                               ; preds = %14
  %36 = load ptr, ptr %24, align 8, !tbaa !52
  %37 = sext i32 %10 to i64
  %38 = getelementptr i8, ptr %36, i64 %37
  %39 = getelementptr i8, ptr %38, i64 1
  %40 = load i8, ptr %39, align 1, !tbaa !11
  store i8 %40, ptr %26, align 4, !tbaa !53
  %41 = and i32 %9, -8
  %42 = load i32, ptr %4, align 4, !tbaa !45
  %43 = sub i32 %41, %42
  %44 = load i32, ptr %6, align 4, !tbaa !48
  %45 = add nsw i32 %43, %44
  store i32 %45, ptr %6, align 4, !tbaa !48
  br label %46

46:                                               ; preds = %14, %2, %35
  %.0 = phi i32 [ 0, %35 ], [ %12, %2 ], [ %33, %14 ]
  ret i32 %.0
}